target datalayout = "e-m:e-p270:32:32-p271:32:32-p272:64:64-i64:64-i128:128-f80:128-n8:16:32:64-S128"
target triple = "x86_64-pc-linux-gnu"

%struct.backend_kwallet_context_t = type { ptr, ptr, ptr }

; Function Attrs: nounwind uwtable
define void @dt_pwstorage_kwallet_destroy(ptr noundef %0) #0 {
  %2 = alloca ptr, align 8
  %3 = alloca ptr, align 8
  store ptr %0, ptr %2, align 8, !tbaa !6
  call void @llvm.lifetime.start.p0(i64 8, ptr %3) #8
  %4 = load ptr, ptr %2, align 8, !tbaa !6
  store ptr %4, ptr %3, align 8, !tbaa !6
  %5 = load ptr, ptr %3, align 8, !tbaa !6
  %6 = getelementptr inbounds nuw %struct.backend_kwallet_context_t, ptr %5, i32 0, i32 0
  %7 = load ptr, ptr %6, align 8, !tbaa !13
  call void @g_object_unref(ptr noundef %7)
  %8 = load ptr, ptr %3, align 8, !tbaa !6
  %9 = getelementptr inbounds nuw %struct.backend_kwallet_context_t, ptr %8, i32 0, i32 1
  %10 = load ptr, ptr %9, align 8, !tbaa !58
  call void @g_object_unref(ptr noundef %10)
  %11 = load ptr, ptr %3, align 8, !tbaa !6
  %12 = getelementptr inbounds nuw %struct.backend_kwallet_context_t, ptr %11, i32 0, i32 2
  %13 = load ptr, ptr %12, align 8, !tbaa !63
  call void @g_free(ptr noundef %13)
  %14 = load ptr, ptr %3, align 8, !tbaa !6
  call void @g_free(ptr noundef %14)
  call void @llvm.lifetime.end.p0(i64 8, ptr %3) #8
  ret void
}