; Function Attrs: nounwind uwtable
define void @dt_pwstorage_kwallet_destroy(ptr noundef %0) local_unnamed_addr #0 {
  %2 = load ptr, ptr %0, align 8, !tbaa !11
  tail call void @g_object_unref(ptr noundef %2) #10
  %3 = getelementptr inbounds nuw i8, ptr %0, i64 8
  %4 = load ptr, ptr %3, align 8, !tbaa !57
  tail call void @g_object_unref(ptr noundef %4) #10
  %5 = getelementptr inbounds nuw i8, ptr %0, i64 16
  %6 = load ptr, ptr %5, align 8, !tbaa !58
  tail call void @g_free(ptr noundef %6) #10
  tail call void @g_free(ptr noundef nonnull %0) #10
  ret void
}